; ModuleID = '10/1391.c'
source_filename = "10/1391.c"
target datalayout = "e-m:e-p270:32:32-p271:32:32-p272:64:64-i64:64-f80:128-n8:16:32:64-S128"
target triple = "x86_64-pc-linux-gnu"

@highget = dso_local global i32 0, align 4
@.str = private unnamed_addr constant [3 x i8] c"%d\00", align 1
@n = common dso_local global i32 0, align 4
@num = common dso_local global [25 x i32] zeroinitializer, align 16

; Function Attrs: noinline nounwind uwtable
define dso_local i32 @main() #0 {
  %1 = alloca i32, align 4
  %2 = alloca i32, align 4
  store i32 0, i32* %1, align 4
  %3 = call i32 (i8*, ...) @__isoc99_scanf(i8* getelementptr inbounds ([3 x i8], [3 x i8]* @.str, i64 0, i64 0), i32* @n)
  store i32 1, i32* %2, align 4
  br label %4

4:                                                ; preds = %13, %0
  %5 = load i32, i32* %2, align 4
  %6 = load i32, i32* @n, align 4
  %7 = icmp sle i32 %5, %6
  br i1 %7, label %8, label %16

8:                                                ; preds = %4
  %9 = load i32, i32* %2, align 4
  %10 = sext i32 %9 to i64
  %11 = getelementptr inbounds [25 x i32], [25 x i32]* @num, i64 0, i64 %10
  %12 = call i32 (i8*, ...) @__isoc99_scanf(i8* getelementptr inbounds ([3 x i8], [3 x i8]* @.str, i64 0, i64 0), i32* %11)
  br label %13

13:                                               ; preds = %8
  %14 = load i32, i32* %2, align 4
  %15 = add nsw i32 %14, 1
  store i32 %15, i32* %2, align 4
  br label %4

16:                                               ; preds = %4
  call void @shoot(i32 1, i32 32767, i32 0)
  %17 = load i32, i32* @highget, align 4
  %18 = call i32 (i8*, ...) @printf(i8* getelementptr inbounds ([3 x i8], [3 x i8]* @.str, i64 0, i64 0), i32 %17)
  ret i32 0
}

declare dso_local i32 @__isoc99_scanf(i8*, ...) #1

; Function Attrs: noinline nounwind uwtable
define dso_local void @shoot(i32 %0, i32 %1, i32 %2) #0 {
  %4 = alloca i32, align 4
  %5 = alloca i32, align 4
  %6 = alloca i32, align 4
  store i32 %0, i32* %4, align 4
  store i32 %1, i32* %5, align 4
  store i32 %2, i32* %6, align 4
  %7 = load i32, i32* %4, align 4
  %8 = load i32, i32* @n, align 4
  %9 = icmp eq i32 %7, %8
  br i1 %9, label %10, label %27

10:                                               ; preds = %3
  %11 = load i32, i32* %4, align 4
  %12 = sext i32 %11 to i64
  %13 = getelementptr inbounds [25 x i32], [25 x i32]* @num, i64 0, i64 %12
  %14 = load i32, i32* %13, align 4
  %15 = load i32, i32* %5, align 4
  %16 = icmp sle i32 %14, %15
  br i1 %16, label %17, label %20

17:                                               ; preds = %10
  %18 = load i32, i32* %6, align 4
  %19 = add nsw i32 %18, 1
  store i32 %19, i32* %6, align 4
  br label %20

20:                                               ; preds = %17, %10
  %21 = load i32, i32* %6, align 4
  %22 = load i32, i32* @highget, align 4
  %23 = icmp sgt i32 %21, %22
  br i1 %23, label %24, label %26

24:                                               ; preds = %20
  %25 = load i32, i32* %6, align 4
  store i32 %25, i32* @highget, align 4
  br label %26

26:                                               ; preds = %24, %20
  br label %48

27:                                               ; preds = %3
  %28 = load i32, i32* %4, align 4
  %29 = add nsw i32 %28, 1
  %30 = load i32, i32* %5, align 4
  %31 = load i32, i32* %6, align 4
  call void @shoot(i32 %29, i32 %30, i32 %31)
  %32 = load i32, i32* %4, align 4
  %33 = sext i32 %32 to i64
  %34 = getelementptr inbounds [25 x i32], [25 x i32]* @num, i64 0, i64 %33
  %35 = load i32, i32* %34, align 4
  %36 = load i32, i32* %5, align 4
  %37 = icmp sle i32 %35, %36
  br i1 %37, label %38, label %47

38:                                               ; preds = %27
  %39 = load i32, i32* %4, align 4
  %40 = add nsw i32 %39, 1
  %41 = load i32, i32* %4, align 4
  %42 = sext i32 %41 to i64
  %43 = getelementptr inbounds [25 x i32], [25 x i32]* @num, i64 0, i64 %42
  %44 = load i32, i32* %43, align 4
  %45 = load i32, i32* %6, align 4
  %46 = add nsw i32 %45, 1
  call void @shoot(i32 %40, i32 %44, i32 %46)
  br label %47

47:                                               ; preds = %38, %27
  br label %48

48:                                               ; preds = %47, %26
  ret void
}

declare dso_local i32 @printf(i8*, ...) #1


!llvm.module.flags = !{!0}
!llvm.ident = !{!1}

!0 = !{i32 1, !"wchar_size", i32 4}
!1 = !{!"clang version 10.0.0-4ubuntu1 "}
